target datalayout = "e-m:e-p270:32:32-p271:32:32-p272:64:64-i64:64-i128:128-f80:128-n8:16:32:64-S128"
target triple = "x86_64-pc-linux-gnu"

%struct._packet_info = type { ptr, ptr, i32, i32, %struct.nstime_t, %struct.nstime_t, %struct.nstime_t, i8, ptr, ptr, ptr, ptr, %struct._address, %struct._address, %struct._address, %struct._address, %struct._address, %struct._address, i32, ptr, i8, [3 x i8], %struct.anon, i32, i32, i32, i32, ptr, i8, ptr, ptr, i16, i16, i32, i32, i16, i32, i32, ptr, ptr, ptr, i8, i8, i16, i16, i16, i32, i16, i16, ptr, ptr, ptr, ptr, ptr, i32, i32 }
%struct.nstime_t = type { i64, i32 }
%struct._address = type { i32, i32, ptr, ptr }
%struct.anon = type { i8, [3 x i8] }

@hf_x11_reply = internal global i32 0, align 4
@hf_x11_reply_sequencenumber = internal global i32 0, align 4
@hf_x11_replylength = internal global i32 0, align 4
@hf_x11_unused = internal global i32 0, align 4
@hf_x11_xinput_XIListProperties_reply_num_properties = internal global i32 0, align 4
@hf_x11_xinput_XIListProperties_reply_properties = internal global i32 0, align 4
@hf_x11_xinput_XIListProperties_reply_properties_item = internal global i32 0, align 4
@ett_x11_list_of_card32 = internal global i32 0, align 4
@.str.15495 = private unnamed_addr constant [18 x i8] c"-XIListProperties\00", align 1
@.str.15496 = private unnamed_addr constant [29 x i8] c"%d (xinput-XIListProperties)\00", align 1

; Function Attrs: null_pointer_is_valid sspstrong uwtable
define internal void @listOfCard32(ptr noundef %0, ptr noundef %1, ptr noundef %2, i32 noundef %3, i32 noundef %4, i32 noundef %5, i32 noundef %6) #1 {
  %8 = alloca ptr, align 8
  %9 = alloca ptr, align 8
  %10 = alloca ptr, align 8
  %11 = alloca i32, align 4
  %12 = alloca i32, align 4
  %13 = alloca i32, align 4
  %14 = alloca i32, align 4
  %15 = alloca ptr, align 8
  %16 = alloca ptr, align 8
  store ptr %0, ptr %8, align 8
  store ptr %1, ptr %9, align 8
  store ptr %2, ptr %10, align 8
  store i32 %3, ptr %11, align 4
  store i32 %4, ptr %12, align 4
  store i32 %5, ptr %13, align 4
  store i32 %6, ptr %14, align 4
  call void @llvm.lifetime.start.p0(i64 8, ptr %15) #11
  %17 = load ptr, ptr %10, align 8
  %18 = load i32, ptr %11, align 4
  %19 = load ptr, ptr %8, align 8
  %20 = load ptr, ptr %9, align 8
  %21 = load i32, ptr %20, align 4
  %22 = load i32, ptr %13, align 4
  %23 = mul i32 %22, 4
  %24 = load i32, ptr %14, align 4
  %25 = call ptr @proto_tree_add_item(ptr noundef %17, i32 noundef %18, ptr noundef %19, i32 noundef %21, i32 noundef %23, i32 noundef %24)
  store ptr %25, ptr %15, align 8
  call void @llvm.lifetime.start.p0(i64 8, ptr %16) #11
  %26 = load ptr, ptr %15, align 8
  %27 = load i32, ptr @ett_x11_list_of_card32, align 4
  %28 = call ptr @proto_item_add_subtree(ptr noundef %26, i32 noundef %27)
  store ptr %28, ptr %16, align 8
  br label %29

29:                                               ; preds = %33, %7
  %30 = load i32, ptr %13, align 4
  %31 = add i32 %30, -1
  store i32 %31, ptr %13, align 4
  %32 = icmp ne i32 %30, 0
  br i1 %32, label %33, label %44

33:                                               ; preds = %29
  %34 = load ptr, ptr %16, align 8
  %35 = load i32, ptr %12, align 4
  %36 = load ptr, ptr %8, align 8
  %37 = load ptr, ptr %9, align 8
  %38 = load i32, ptr %37, align 4
  %39 = load i32, ptr %14, align 4
  %40 = call ptr @proto_tree_add_item(ptr noundef %34, i32 noundef %35, ptr noundef %36, i32 noundef %38, i32 noundef 4, i32 noundef %39)
  %41 = load ptr, ptr %9, align 8
  %42 = load i32, ptr %41, align 4
  %43 = add i32 %42, 4
  store i32 %43, ptr %41, align 4
  br label %29, !llvm.loop !45

44:                                               ; preds = %29
  call void @llvm.lifetime.end.p0(i64 8, ptr %16) #11
  call void @llvm.lifetime.end.p0(i64 8, ptr %15) #11
  ret void
}

; Function Attrs: null_pointer_is_valid sspstrong uwtable
define internal void @xinputXIListProperties_Reply(ptr noundef %0, ptr noundef %1, ptr noundef %2, ptr noundef %3, i32 noundef %4) #1 {
  %6 = alloca ptr, align 8
  %7 = alloca ptr, align 8
  %8 = alloca ptr, align 8
  %9 = alloca ptr, align 8
  %10 = alloca i32, align 4
  %11 = alloca i32, align 4
  %12 = alloca i32, align 4
  store ptr %0, ptr %6, align 8
  store ptr %1, ptr %7, align 8
  store ptr %2, ptr %8, align 8
  store ptr %3, ptr %9, align 8
  store i32 %4, ptr %10, align 4
  call void @llvm.lifetime.start.p0(i64 4, ptr %11) #11
  call void @llvm.lifetime.start.p0(i64 4, ptr %12) #11
  %13 = load ptr, ptr %7, align 8
  %14 = getelementptr inbounds nuw %struct._packet_info, ptr %13, i32 0, i32 1
  %15 = load ptr, ptr %14, align 8
  call void (ptr, i32, ptr, ...) @col_append_fstr(ptr noundef %15, i32 noundef 25, ptr noundef @.str.15495)
  %16 = load ptr, ptr %6, align 8
  %17 = load ptr, ptr %8, align 8
  %18 = load ptr, ptr %9, align 8
  %19 = load i32, ptr @hf_x11_reply, align 4
  %20 = load i32, ptr %10, align 4
  %21 = call i32 @field8(ptr noundef %16, ptr noundef %17, ptr noundef %18, i32 noundef %19, i32 noundef %20)
  %22 = load ptr, ptr %9, align 8
  %23 = load i32, ptr @hf_x11_unused, align 4
  %24 = load ptr, ptr %6, align 8
  %25 = load ptr, ptr %8, align 8
  %26 = load i32, ptr %25, align 4
  %27 = call ptr @proto_tree_add_item(ptr noundef %22, i32 noundef %23, ptr noundef %24, i32 noundef %26, i32 noundef 1, i32 noundef 0)
  %28 = load ptr, ptr %8, align 8
  %29 = load i32, ptr %28, align 4
  %30 = add i32 %29, 1
  store i32 %30, ptr %28, align 4
  %31 = load ptr, ptr %6, align 8
  %32 = load ptr, ptr %8, align 8
  %33 = load i32, ptr %32, align 4
  %34 = load i32, ptr %10, align 4
  %35 = call zeroext i16 @tvb_get_uint16(ptr noundef %31, i32 noundef %33, i32 noundef %34)
  %36 = zext i16 %35 to i32
  store i32 %36, ptr %11, align 4
  %37 = load ptr, ptr %9, align 8
  %38 = load i32, ptr @hf_x11_reply_sequencenumber, align 4
  %39 = load ptr, ptr %6, align 8
  %40 = load ptr, ptr %8, align 8
  %41 = load i32, ptr %40, align 4
  %42 = load i32, ptr %11, align 4
  %43 = load i32, ptr %11, align 4
  %44 = call ptr (ptr, i32, ptr, i32, i32, i32, ptr, ...) @proto_tree_add_uint_format_value(ptr noundef %37, i32 noundef %38, ptr noundef %39, i32 noundef %41, i32 noundef 2, i32 noundef %42, ptr noundef @.str.15496, i32 noundef %43)
  %45 = load ptr, ptr %8, align 8
  %46 = load i32, ptr %45, align 4
  %47 = add i32 %46, 2
  store i32 %47, ptr %45, align 4
  %48 = load ptr, ptr %9, align 8
  %49 = load i32, ptr @hf_x11_replylength, align 4
  %50 = load ptr, ptr %6, align 8
  %51 = load ptr, ptr %8, align 8
  %52 = load i32, ptr %51, align 4
  %53 = load i32, ptr %10, align 4
  %54 = call ptr @proto_tree_add_item(ptr noundef %48, i32 noundef %49, ptr noundef %50, i32 noundef %52, i32 noundef 4, i32 noundef %53)
  %55 = load ptr, ptr %8, align 8
  %56 = load i32, ptr %55, align 4
  %57 = add i32 %56, 4
  store i32 %57, ptr %55, align 4
  %58 = load ptr, ptr %6, align 8
  %59 = load ptr, ptr %8, align 8
  %60 = load i32, ptr %59, align 4
  %61 = load i32, ptr %10, align 4
  %62 = call zeroext i16 @tvb_get_uint16(ptr noundef %58, i32 noundef %60, i32 noundef %61)
  %63 = zext i16 %62 to i32
  store i32 %63, ptr %12, align 4
  %64 = load ptr, ptr %9, align 8
  %65 = load i32, ptr @hf_x11_xinput_XIListProperties_reply_num_properties, align 4
  %66 = load ptr, ptr %6, align 8
  %67 = load ptr, ptr %8, align 8
  %68 = load i32, ptr %67, align 4
  %69 = load i32, ptr %10, align 4
  %70 = call ptr @proto_tree_add_item(ptr noundef %64, i32 noundef %65, ptr noundef %66, i32 noundef %68, i32 noundef 2, i32 noundef %69)
  %71 = load ptr, ptr %8, align 8
  %72 = load i32, ptr %71, align 4
  %73 = add i32 %72, 2
  store i32 %73, ptr %71, align 4
  %74 = load ptr, ptr %9, align 8
  %75 = load i32, ptr @hf_x11_unused, align 4
  %76 = load ptr, ptr %6, align 8
  %77 = load ptr, ptr %8, align 8
  %78 = load i32, ptr %77, align 4
  %79 = call ptr @proto_tree_add_item(ptr noundef %74, i32 noundef %75, ptr noundef %76, i32 noundef %78, i32 noundef 22, i32 noundef 0)
  %80 = load ptr, ptr %8, align 8
  %81 = load i32, ptr %80, align 4
  %82 = add i32 %81, 22
  store i32 %82, ptr %80, align 4
  %83 = load ptr, ptr %6, align 8
  %84 = load ptr, ptr %8, align 8
  %85 = load ptr, ptr %9, align 8
  %86 = load i32, ptr @hf_x11_xinput_XIListProperties_reply_properties, align 4
  %87 = load i32, ptr @hf_x11_xinput_XIListProperties_reply_properties_item, align 4
  %88 = load i32, ptr %12, align 4
  %89 = load i32, ptr %10, align 4
  call void @listOfCard32(ptr noundef %83, ptr noundef %84, ptr noundef %85, i32 noundef %86, i32 noundef %87, i32 noundef %88, i32 noundef %89)
  call void @llvm.lifetime.end.p0(i64 4, ptr %12) #11
  call void @llvm.lifetime.end.p0(i64 4, ptr %11) #11
  ret void
}