; Function Attrs: null_pointer_is_valid sspstrong uwtable
define internal void @xinputXIListProperties_Reply(ptr noundef %0, ptr noundef readonly captures(none) %1, ptr noundef captures(none) %2, ptr noundef %3, i32 noundef %4) #1 {
  %6 = getelementptr inbounds nuw i8, ptr %1, i64 8
  %7 = load ptr, ptr %6, align 8
  tail call void (ptr, i32, ptr, ...) @col_append_fstr(ptr noundef %7, i32 noundef 25, ptr noundef nonnull @.str.15495)
  %8 = load i32, ptr @hf_x11_reply, align 4
  %9 = tail call fastcc i32 @field8(ptr noundef %0, ptr noundef %2, ptr noundef %3, i32 noundef %8, i32 noundef %4)
  %10 = load i32, ptr @hf_x11_unused, align 4
  %11 = load i32, ptr %2, align 4
  %12 = tail call ptr @proto_tree_add_item(ptr noundef %3, i32 noundef %10, ptr noundef %0, i32 noundef %11, i32 noundef 1, i32 noundef 0)
  %13 = load i32, ptr %2, align 4
  %14 = add i32 %13, 1
  store i32 %14, ptr %2, align 4
  %15 = tail call zeroext i16 @tvb_get_uint16(ptr noundef %0, i32 noundef %14, i32 noundef %4)
  %16 = zext i16 %15 to i32
  %17 = load i32, ptr @hf_x11_reply_sequencenumber, align 4
  %18 = load i32, ptr %2, align 4
  %19 = tail call ptr (ptr, i32, ptr, i32, i32, i32, ptr, ...) @proto_tree_add_uint_format_value(ptr noundef %3, i32 noundef %17, ptr noundef %0, i32 noundef %18, i32 noundef 2, i32 noundef %16, ptr noundef nonnull @.str.15496, i32 noundef %16)
  %20 = load i32, ptr %2, align 4
  %21 = add i32 %20, 2
  store i32 %21, ptr %2, align 4
  %22 = load i32, ptr @hf_x11_replylength, align 4
  %23 = tail call ptr @proto_tree_add_item(ptr noundef %3, i32 noundef %22, ptr noundef %0, i32 noundef %21, i32 noundef 4, i32 noundef %4)
  %24 = load i32, ptr %2, align 4
  %25 = add i32 %24, 4
  store i32 %25, ptr %2, align 4
  %26 = tail call zeroext i16 @tvb_get_uint16(ptr noundef %0, i32 noundef %25, i32 noundef %4)
  %27 = zext i16 %26 to i32
  %28 = load i32, ptr @hf_x11_xinput_XIListProperties_reply_num_properties, align 4
  %29 = load i32, ptr %2, align 4
  %30 = tail call ptr @proto_tree_add_item(ptr noundef %3, i32 noundef %28, ptr noundef %0, i32 noundef %29, i32 noundef 2, i32 noundef %4)
  %31 = load i32, ptr %2, align 4
  %32 = add i32 %31, 2
  store i32 %32, ptr %2, align 4
  %33 = load i32, ptr @hf_x11_unused, align 4
  %34 = tail call ptr @proto_tree_add_item(ptr noundef %3, i32 noundef %33, ptr noundef %0, i32 noundef %32, i32 noundef 22, i32 noundef 0)
  %35 = load i32, ptr %2, align 4
  %36 = add i32 %35, 22
  store i32 %36, ptr %2, align 4
  %37 = load i32, ptr @hf_x11_xinput_XIListProperties_reply_properties, align 4
  %38 = load i32, ptr @hf_x11_xinput_XIListProperties_reply_properties_item, align 4
  %39 = shl nuw nsw i32 %27, 2
  %40 = tail call ptr @proto_tree_add_item(ptr noundef %3, i32 noundef %37, ptr noundef %0, i32 noundef %36, i32 noundef %39, i32 noundef %4)
  %41 = load i32, ptr @ett_x11_list_of_card32, align 4
  %42 = tail call ptr @proto_item_add_subtree(ptr noundef %40, i32 noundef %41)
  %.not13.i = icmp eq i16 %26, 0
  br i1 %.not13.i, label %listOfCard32.exit, label %.lr.ph.preheader.i

.lr.ph.preheader.i:                               ; preds = %5
  %.pre.i = load i32, ptr %2, align 4
  br label %.lr.ph.i

.lr.ph.i:                                         ; preds = %.lr.ph.i, %.lr.ph.preheader.i
  %43 = phi i32 [ %47, %.lr.ph.i ], [ %.pre.i, %.lr.ph.preheader.i ]
  %.014.i = phi i32 [ %44, %.lr.ph.i ], [ %27, %.lr.ph.preheader.i ]
  %44 = add nsw i32 %.014.i, -1
  %45 = tail call ptr @proto_tree_add_item(ptr noundef %42, i32 noundef %38, ptr noundef %0, i32 noundef %43, i32 noundef 4, i32 noundef %4)
  %46 = load i32, ptr %2, align 4
  %47 = add i32 %46, 4
  store i32 %47, ptr %2, align 4
  %.not.i = icmp eq i32 %44, 0
  br i1 %.not.i, label %listOfCard32.exit, label %.lr.ph.i, !llvm.loop !44

listOfCard32.exit:                                ; preds = %.lr.ph.i, %5
  ret void
}